; Function Attrs: mustprogress nofree norecurse nosync nounwind sspstrong willreturn memory(write, argmem: readwrite, inaccessiblemem: none) uwtable
define dso_local void @virtio_queue_invalidate_signalled_used(ptr noundef readonly captures(none) %vdev, i32 noundef %n) local_unnamed_addr #13 {
entry:
  %vq = getelementptr inbounds nuw i8, ptr %vdev, i64 232
  %0 = load ptr, ptr %vq, align 8
  %idxprom = sext i32 %n to i64
  %signalled_used_valid = getelementptr %struct.VirtQueue, ptr %0, i64 %idxprom, i32 9
  store i8 0, ptr %signalled_used_valid, align 2
  ret void
}